target datalayout = "e-m:e-p270:32:32-p271:32:32-p272:64:64-i64:64-i128:128-f80:128-n8:16:32:64-S128"
target triple = "x86_64-pc-linux-gnu"

%struct._ir_ctx = type { ptr, i32, i32, i32, i32, i32, i32, i32, i32, i32, i32, %struct._ir_insn, ptr, ptr, ptr, i32, i32, i32, ptr, ptr, ptr, ptr, ptr, ptr, i32, i32, i64, i32, i32, i32, i64, i32, i32, i32, i32, ptr, ptr, ptr, ptr, ptr, ptr, %union.anon.13, ptr, i32, i32, i32, i64, i32, i32, i32, ptr, ptr, ptr, ptr, %struct._ir_strtab, [61 x i32], [14 x i32] }
%struct._ir_insn = type { %struct.anon, %union.anon.5 }
%struct.anon = type { %union.anon, %union.anon.4 }
%union.anon = type { i32 }
%union.anon.4 = type { i32 }
%union.anon.5 = type { %union._ir_val }
%union._ir_val = type { double }
%union.anon.13 = type { ptr }
%struct._ir_strtab = type { ptr, i32, i32, i32, i32, ptr, i32, i32 }

@.str.28 = private unnamed_addr constant [3 x i8] c"}\0A\00", align 1
@.str.34 = private unnamed_addr constant [26 x i8] c"{ # CFG map (insn -> bb)\0A\00", align 1
@.str.35 = private unnamed_addr constant [10 x i8] c"%d -> %d\0A\00", align 1

; Function Attrs: nounwind uwtable
define hidden void @ir_dump_cfg_map(ptr noundef %0, ptr noundef %1) #0 {
  %3 = alloca ptr, align 8
  %4 = alloca ptr, align 8
  %5 = alloca i32, align 4
  %6 = alloca ptr, align 8
  store ptr %0, ptr %3, align 8, !tbaa !4
  store ptr %1, ptr %4, align 8, !tbaa !9
  call void @llvm.lifetime.start.p0(i64 4, ptr %5) #6
  call void @llvm.lifetime.start.p0(i64 8, ptr %6) #6
  %7 = load ptr, ptr %3, align 8, !tbaa !4
  %8 = getelementptr inbounds nuw %struct._ir_ctx, ptr %7, i32 0, i32 20
  %9 = load ptr, ptr %8, align 8, !tbaa !63
  store ptr %9, ptr %6, align 8, !tbaa !36
  %10 = load ptr, ptr %6, align 8, !tbaa !36
  %11 = icmp ne ptr %10, null
  br i1 %11, label %12, label %36

12:                                               ; preds = %2
  %13 = load ptr, ptr %4, align 8, !tbaa !9
  %14 = call i32 (ptr, ptr, ...) @fprintf(ptr noundef %13, ptr noundef @.str.34) #6
  store i32 1, ptr %5, align 4, !tbaa !30
  br label %15

15:                                               ; preds = %30, %12
  %16 = load i32, ptr %5, align 4, !tbaa !30
  %17 = load ptr, ptr %3, align 8, !tbaa !4
  %18 = getelementptr inbounds nuw %struct._ir_ctx, ptr %17, i32 0, i32 1
  %19 = load i32, ptr %18, align 8, !tbaa !35
  %20 = icmp slt i32 %16, %19
  br i1 %20, label %21, label %33

21:                                               ; preds = %15
  %22 = load ptr, ptr %4, align 8, !tbaa !9
  %23 = load i32, ptr %5, align 4, !tbaa !30
  %24 = load ptr, ptr %6, align 8, !tbaa !36
  %25 = load i32, ptr %5, align 4, !tbaa !30
  %26 = sext i32 %25 to i64
  %27 = getelementptr inbounds i32, ptr %24, i64 %26
  %28 = load i32, ptr %27, align 4, !tbaa !30
  %29 = call i32 (ptr, ptr, ...) @fprintf(ptr noundef %22, ptr noundef @.str.35, i32 noundef %23, i32 noundef %28) #6
  br label %30

30:                                               ; preds = %21
  %31 = load i32, ptr %5, align 4, !tbaa !30
  %32 = add nsw i32 %31, 1
  store i32 %32, ptr %5, align 4, !tbaa !30
  br label %15

33:                                               ; preds = %15
  %34 = load ptr, ptr %4, align 8, !tbaa !9
  %35 = call i32 (ptr, ptr, ...) @fprintf(ptr noundef %34, ptr noundef @.str.28) #6
  br label %36

36:                                               ; preds = %33, %2
  call void @llvm.lifetime.end.p0(i64 8, ptr %6) #6
  call void @llvm.lifetime.end.p0(i64 4, ptr %5) #6
  ret void
}