; Function Attrs: nofree nounwind uwtable
define hidden void @ir_dump_cfg_map(ptr noundef readonly captures(none) %0, ptr noundef captures(none) %1) local_unnamed_addr #4 {
  %3 = getelementptr inbounds nuw i8, ptr %0, i64 120
  %4 = load ptr, ptr %3, align 8, !tbaa !58
  %.not = icmp eq ptr %4, null
  br i1 %.not, label %18, label %5

5:                                                ; preds = %2
  %6 = tail call i64 @fwrite(ptr nonnull @.str.34, i64 25, i64 1, ptr %1)
  %7 = getelementptr inbounds nuw i8, ptr %0, i64 8
  %8 = load i32, ptr %7, align 8, !tbaa !29
  %9 = icmp sgt i32 %8, 1
  br i1 %9, label %.lr.ph, label %._crit_edge

.lr.ph:                                           ; preds = %5, %.lr.ph
  %indvars.iv = phi i64 [ %indvars.iv.next, %.lr.ph ], [ 1, %5 ]
  %10 = getelementptr inbounds nuw i32, ptr %4, i64 %indvars.iv
  %11 = load i32, ptr %10, align 4, !tbaa !30
  %12 = trunc nuw nsw i64 %indvars.iv to i32
  %13 = tail call i32 (ptr, ptr, ...) @fprintf(ptr noundef %1, ptr noundef nonnull @.str.35, i32 noundef %12, i32 noundef %11) #7
  %indvars.iv.next = add nuw nsw i64 %indvars.iv, 1
  %14 = load i32, ptr %7, align 8, !tbaa !29
  %15 = sext i32 %14 to i64
  %16 = icmp slt i64 %indvars.iv.next, %15
  br i1 %16, label %.lr.ph, label %._crit_edge

._crit_edge:                                      ; preds = %.lr.ph, %5
  %17 = tail call i64 @fwrite(ptr nonnull @.str.28, i64 2, i64 1, ptr %1)
  br label %18

18:                                               ; preds = %._crit_edge, %2
  ret void
}